
BrymenConnector_new.elf:     file format elf32-avr

Sections:
Idx Name          Size      VMA       LMA       File off  Algn
  0 .text         000008fe  00000000  00000000  00000094  2**1
                  CONTENTS, ALLOC, LOAD, READONLY, CODE
  1 .data         00000002  00800060  000008fe  00000992  2**0
                  CONTENTS, ALLOC, LOAD, DATA
  2 .bss          00000015  00800062  00800062  00000994  2**0
                  ALLOC
  3 .comment      00000030  00000000  00000000  00000994  2**0
                  CONTENTS, READONLY
  4 .note.gnu.avr.deviceinfo 0000003c  00000000  00000000  000009c4  2**2
                  CONTENTS, READONLY
  5 .debug_aranges 000000a0  00000000  00000000  00000a00  2**0
                  CONTENTS, READONLY, DEBUGGING
  6 .debug_info   000013e8  00000000  00000000  00000aa0  2**0
                  CONTENTS, READONLY, DEBUGGING
  7 .debug_abbrev 00000927  00000000  00000000  00001e88  2**0
                  CONTENTS, READONLY, DEBUGGING
  8 .debug_line   00000a24  00000000  00000000  000027af  2**0
                  CONTENTS, READONLY, DEBUGGING
  9 .debug_frame  0000017c  00000000  00000000  000031d4  2**2
                  CONTENTS, READONLY, DEBUGGING
 10 .debug_str    00000504  00000000  00000000  00003350  2**0
                  CONTENTS, READONLY, DEBUGGING
 11 .debug_loc    00000bc4  00000000  00000000  00003854  2**0
                  CONTENTS, READONLY, DEBUGGING
 12 .debug_ranges 000000b8  00000000  00000000  00004418  2**0
                  CONTENTS, READONLY, DEBUGGING

Disassembly of section .text:

00000000 <__vectors>:
   0:	37 c1       	rjmp	.+622    	; 0x270 <__ctors_end>
   2:	51 c1       	rjmp	.+674    	; 0x2a6 <__bad_interrupt>
   4:	db c3       	rjmp	.+1974   	; 0x7bc <__vector_2>
   6:	4f c1       	rjmp	.+670    	; 0x2a6 <__bad_interrupt>
   8:	4e c1       	rjmp	.+668    	; 0x2a6 <__bad_interrupt>
   a:	4d c1       	rjmp	.+666    	; 0x2a6 <__bad_interrupt>
   c:	4c c1       	rjmp	.+664    	; 0x2a6 <__bad_interrupt>
   e:	4b c1       	rjmp	.+662    	; 0x2a6 <__bad_interrupt>
  10:	4a c1       	rjmp	.+660    	; 0x2a6 <__bad_interrupt>
  12:	49 c1       	rjmp	.+658    	; 0x2a6 <__bad_interrupt>
  14:	48 c1       	rjmp	.+656    	; 0x2a6 <__bad_interrupt>
  16:	47 c1       	rjmp	.+654    	; 0x2a6 <__bad_interrupt>
  18:	46 c1       	rjmp	.+652    	; 0x2a6 <__bad_interrupt>
  1a:	45 c1       	rjmp	.+650    	; 0x2a6 <__bad_interrupt>
  1c:	44 c1       	rjmp	.+648    	; 0x2a6 <__bad_interrupt>
  1e:	b5 c1       	rjmp	.+874    	; 0x38a <_Z11decodeDigith+0x42>
  20:	b6 c1       	rjmp	.+876    	; 0x38e <_Z11decodeDigith+0x46>
  22:	b5 c1       	rjmp	.+874    	; 0x38e <_Z11decodeDigith+0x46>
  24:	b4 c1       	rjmp	.+872    	; 0x38e <_Z11decodeDigith+0x46>
  26:	b3 c1       	rjmp	.+870    	; 0x38e <_Z11decodeDigith+0x46>
  28:	b2 c1       	rjmp	.+868    	; 0x38e <_Z11decodeDigith+0x46>
  2a:	b1 c1       	rjmp	.+866    	; 0x38e <_Z11decodeDigith+0x46>
  2c:	b0 c1       	rjmp	.+864    	; 0x38e <_Z11decodeDigith+0x46>
  2e:	af c1       	rjmp	.+862    	; 0x38e <_Z11decodeDigith+0x46>
  30:	ae c1       	rjmp	.+860    	; 0x38e <_Z11decodeDigith+0x46>
  32:	ad c1       	rjmp	.+858    	; 0x38e <_Z11decodeDigith+0x46>
  34:	a8 c1       	rjmp	.+848    	; 0x386 <_Z11decodeDigith+0x3e>
  36:	ab c1       	rjmp	.+854    	; 0x38e <_Z11decodeDigith+0x46>
  38:	aa c1       	rjmp	.+852    	; 0x38e <_Z11decodeDigith+0x46>
  3a:	a9 c1       	rjmp	.+850    	; 0x38e <_Z11decodeDigith+0x46>
  3c:	a8 c1       	rjmp	.+848    	; 0x38e <_Z11decodeDigith+0x46>
  3e:	9f c1       	rjmp	.+830    	; 0x37e <_Z11decodeDigith+0x36>
  40:	a6 c1       	rjmp	.+844    	; 0x38e <_Z11decodeDigith+0x46>
  42:	a5 c1       	rjmp	.+842    	; 0x38e <_Z11decodeDigith+0x46>
  44:	a4 c1       	rjmp	.+840    	; 0x38e <_Z11decodeDigith+0x46>
  46:	a3 c1       	rjmp	.+838    	; 0x38e <_Z11decodeDigith+0x46>
  48:	a2 c1       	rjmp	.+836    	; 0x38e <_Z11decodeDigith+0x46>
  4a:	a1 c1       	rjmp	.+834    	; 0x38e <_Z11decodeDigith+0x46>
  4c:	a0 c1       	rjmp	.+832    	; 0x38e <_Z11decodeDigith+0x46>
  4e:	9f c1       	rjmp	.+830    	; 0x38e <_Z11decodeDigith+0x46>
  50:	9e c1       	rjmp	.+828    	; 0x38e <_Z11decodeDigith+0x46>
  52:	9d c1       	rjmp	.+826    	; 0x38e <_Z11decodeDigith+0x46>
  54:	9c c1       	rjmp	.+824    	; 0x38e <_Z11decodeDigith+0x46>
  56:	9b c1       	rjmp	.+822    	; 0x38e <_Z11decodeDigith+0x46>
  58:	9a c1       	rjmp	.+820    	; 0x38e <_Z11decodeDigith+0x46>
  5a:	99 c1       	rjmp	.+818    	; 0x38e <_Z11decodeDigith+0x46>
  5c:	98 c1       	rjmp	.+816    	; 0x38e <_Z11decodeDigith+0x46>
  5e:	97 c1       	rjmp	.+814    	; 0x38e <_Z11decodeDigith+0x46>
  60:	96 c1       	rjmp	.+812    	; 0x38e <_Z11decodeDigith+0x46>
  62:	95 c1       	rjmp	.+810    	; 0x38e <_Z11decodeDigith+0x46>
  64:	94 c1       	rjmp	.+808    	; 0x38e <_Z11decodeDigith+0x46>
  66:	93 c1       	rjmp	.+806    	; 0x38e <_Z11decodeDigith+0x46>
  68:	92 c1       	rjmp	.+804    	; 0x38e <_Z11decodeDigith+0x46>
  6a:	91 c1       	rjmp	.+802    	; 0x38e <_Z11decodeDigith+0x46>
  6c:	90 c1       	rjmp	.+800    	; 0x38e <_Z11decodeDigith+0x46>
  6e:	8f c1       	rjmp	.+798    	; 0x38e <_Z11decodeDigith+0x46>
  70:	8e c1       	rjmp	.+796    	; 0x38e <_Z11decodeDigith+0x46>
  72:	8d c1       	rjmp	.+794    	; 0x38e <_Z11decodeDigith+0x46>
  74:	8c c1       	rjmp	.+792    	; 0x38e <_Z11decodeDigith+0x46>
  76:	8b c1       	rjmp	.+790    	; 0x38e <_Z11decodeDigith+0x46>
  78:	8a c1       	rjmp	.+788    	; 0x38e <_Z11decodeDigith+0x46>
  7a:	89 c1       	rjmp	.+786    	; 0x38e <_Z11decodeDigith+0x46>
  7c:	88 c1       	rjmp	.+784    	; 0x38e <_Z11decodeDigith+0x46>
  7e:	87 c1       	rjmp	.+782    	; 0x38e <_Z11decodeDigith+0x46>
  80:	86 c1       	rjmp	.+780    	; 0x38e <_Z11decodeDigith+0x46>
  82:	85 c1       	rjmp	.+778    	; 0x38e <_Z11decodeDigith+0x46>
  84:	84 c1       	rjmp	.+776    	; 0x38e <_Z11decodeDigith+0x46>
  86:	83 c1       	rjmp	.+774    	; 0x38e <_Z11decodeDigith+0x46>
  88:	82 c1       	rjmp	.+772    	; 0x38e <_Z11decodeDigith+0x46>
  8a:	81 c1       	rjmp	.+770    	; 0x38e <_Z11decodeDigith+0x46>
  8c:	80 c1       	rjmp	.+768    	; 0x38e <_Z11decodeDigith+0x46>
  8e:	7f c1       	rjmp	.+766    	; 0x38e <_Z11decodeDigith+0x46>
  90:	78 c1       	rjmp	.+752    	; 0x382 <_Z11decodeDigith+0x3a>
  92:	7d c1       	rjmp	.+762    	; 0x38e <_Z11decodeDigith+0x46>
  94:	7c c1       	rjmp	.+760    	; 0x38e <_Z11decodeDigith+0x46>
  96:	7b c1       	rjmp	.+758    	; 0x38e <_Z11decodeDigith+0x46>
  98:	7a c1       	rjmp	.+756    	; 0x38e <_Z11decodeDigith+0x46>
  9a:	65 c1       	rjmp	.+714    	; 0x366 <_Z11decodeDigith+0x1e>
  9c:	66 c1       	rjmp	.+716    	; 0x36a <_Z11decodeDigith+0x22>
  9e:	77 c1       	rjmp	.+750    	; 0x38e <_Z11decodeDigith+0x46>
  a0:	76 c1       	rjmp	.+748    	; 0x38e <_Z11decodeDigith+0x46>
  a2:	75 c1       	rjmp	.+746    	; 0x38e <_Z11decodeDigith+0x46>
  a4:	74 c1       	rjmp	.+744    	; 0x38e <_Z11decodeDigith+0x46>
  a6:	73 c1       	rjmp	.+742    	; 0x38e <_Z11decodeDigith+0x46>
  a8:	72 c1       	rjmp	.+740    	; 0x38e <_Z11decodeDigith+0x46>
  aa:	71 c1       	rjmp	.+738    	; 0x38e <_Z11decodeDigith+0x46>
  ac:	70 c1       	rjmp	.+736    	; 0x38e <_Z11decodeDigith+0x46>
  ae:	6f c1       	rjmp	.+734    	; 0x38e <_Z11decodeDigith+0x46>
  b0:	6e c1       	rjmp	.+732    	; 0x38e <_Z11decodeDigith+0x46>
  b2:	6d c1       	rjmp	.+730    	; 0x38e <_Z11decodeDigith+0x46>
  b4:	6c c1       	rjmp	.+728    	; 0x38e <_Z11decodeDigith+0x46>
  b6:	6b c1       	rjmp	.+726    	; 0x38e <_Z11decodeDigith+0x46>
  b8:	6a c1       	rjmp	.+724    	; 0x38e <_Z11decodeDigith+0x46>
  ba:	69 c1       	rjmp	.+722    	; 0x38e <_Z11decodeDigith+0x46>
  bc:	68 c1       	rjmp	.+720    	; 0x38e <_Z11decodeDigith+0x46>
  be:	4b c1       	rjmp	.+662    	; 0x356 <_Z11decodeDigith+0xe>
  c0:	66 c1       	rjmp	.+716    	; 0x38e <_Z11decodeDigith+0x46>
  c2:	65 c1       	rjmp	.+714    	; 0x38e <_Z11decodeDigith+0x46>
  c4:	64 c1       	rjmp	.+712    	; 0x38e <_Z11decodeDigith+0x46>
  c6:	53 c1       	rjmp	.+678    	; 0x36e <_Z11decodeDigith+0x26>
  c8:	62 c1       	rjmp	.+708    	; 0x38e <_Z11decodeDigith+0x46>
  ca:	61 c1       	rjmp	.+706    	; 0x38e <_Z11decodeDigith+0x46>
  cc:	60 c1       	rjmp	.+704    	; 0x38e <_Z11decodeDigith+0x46>
  ce:	5f c1       	rjmp	.+702    	; 0x38e <_Z11decodeDigith+0x46>
  d0:	5e c1       	rjmp	.+700    	; 0x38e <_Z11decodeDigith+0x46>
  d2:	5d c1       	rjmp	.+698    	; 0x38e <_Z11decodeDigith+0x46>
  d4:	5c c1       	rjmp	.+696    	; 0x38e <_Z11decodeDigith+0x46>
  d6:	5b c1       	rjmp	.+694    	; 0x38e <_Z11decodeDigith+0x46>
  d8:	5a c1       	rjmp	.+692    	; 0x38e <_Z11decodeDigith+0x46>
  da:	59 c1       	rjmp	.+690    	; 0x38e <_Z11decodeDigith+0x46>
  dc:	5a c1       	rjmp	.+692    	; 0x392 <_Z11decodeDigith+0x4a>
  de:	57 c1       	rjmp	.+686    	; 0x38e <_Z11decodeDigith+0x46>
  e0:	56 c1       	rjmp	.+684    	; 0x38e <_Z11decodeDigith+0x46>
  e2:	55 c1       	rjmp	.+682    	; 0x38e <_Z11decodeDigith+0x46>
  e4:	54 c1       	rjmp	.+680    	; 0x38e <_Z11decodeDigith+0x46>
  e6:	53 c1       	rjmp	.+678    	; 0x38e <_Z11decodeDigith+0x46>
  e8:	52 c1       	rjmp	.+676    	; 0x38e <_Z11decodeDigith+0x46>
  ea:	51 c1       	rjmp	.+674    	; 0x38e <_Z11decodeDigith+0x46>
  ec:	50 c1       	rjmp	.+672    	; 0x38e <_Z11decodeDigith+0x46>
  ee:	4f c1       	rjmp	.+670    	; 0x38e <_Z11decodeDigith+0x46>
  f0:	4e c1       	rjmp	.+668    	; 0x38e <_Z11decodeDigith+0x46>
  f2:	4d c1       	rjmp	.+666    	; 0x38e <_Z11decodeDigith+0x46>
  f4:	4c c1       	rjmp	.+664    	; 0x38e <_Z11decodeDigith+0x46>
  f6:	4b c1       	rjmp	.+662    	; 0x38e <_Z11decodeDigith+0x46>
  f8:	30 c1       	rjmp	.+608    	; 0x35a <_Z11decodeDigith+0x12>
  fa:	49 c1       	rjmp	.+658    	; 0x38e <_Z11decodeDigith+0x46>
  fc:	48 c1       	rjmp	.+656    	; 0x38e <_Z11decodeDigith+0x46>
  fe:	47 c1       	rjmp	.+654    	; 0x38e <_Z11decodeDigith+0x46>
 100:	46 c1       	rjmp	.+652    	; 0x38e <_Z11decodeDigith+0x46>
 102:	2f c1       	rjmp	.+606    	; 0x362 <_Z11decodeDigith+0x1a>
 104:	44 c1       	rjmp	.+648    	; 0x38e <_Z11decodeDigith+0x46>
 106:	43 c1       	rjmp	.+646    	; 0x38e <_Z11decodeDigith+0x46>
 108:	42 c1       	rjmp	.+644    	; 0x38e <_Z11decodeDigith+0x46>
 10a:	41 c1       	rjmp	.+642    	; 0x38e <_Z11decodeDigith+0x46>
 10c:	40 c1       	rjmp	.+640    	; 0x38e <_Z11decodeDigith+0x46>
 10e:	3f c1       	rjmp	.+638    	; 0x38e <_Z11decodeDigith+0x46>
 110:	34 c1       	rjmp	.+616    	; 0x37a <_Z11decodeDigith+0x32>
 112:	3d c1       	rjmp	.+634    	; 0x38e <_Z11decodeDigith+0x46>
 114:	3c c1       	rjmp	.+632    	; 0x38e <_Z11decodeDigith+0x46>
 116:	23 c1       	rjmp	.+582    	; 0x35e <_Z11decodeDigith+0x16>
 118:	3a c1       	rjmp	.+628    	; 0x38e <_Z11decodeDigith+0x46>
 11a:	2d c1       	rjmp	.+602    	; 0x376 <_Z11decodeDigith+0x2e>
 11c:	2a c1       	rjmp	.+596    	; 0x372 <_Z11decodeDigith+0x2a>

0000011e <__trampolines_end>:
 11e:	4c 4f       	sbci	r20, 0xFC	; 252
 120:	57 20       	and	r5, r7
 122:	42 41       	sbci	r20, 0x12	; 18
 124:	54 0a       	sbc	r5, r20
	...

00000127 <_ZZ11processDatavE3__c_19>:
 127:	41 43 20 00                                         AC .

0000012b <_ZZ11processDatavE3__c_18>:
 12b:	25 34 2d 32 30 6d 41 00                             %4-20mA.

00000133 <_ZZ11processDatavE3__c_17>:
 133:	48 7a 00                                            Hz.

00000136 <_ZZ11processDatavE3__c_16>:
 136:	41 55 58 3a 20 00                                   AUX: .

0000013c <_ZZ11processDatavE3__c_15>:
 13c:	41 43 20 00                                         AC .

00000140 <_ZZ11processDatavE3__c_14>:
 140:	44 43 20 00                                         DC .

00000144 <_ZZ11processDatavE3__c_13>:
 144:	48 7a 00                                            Hz.

00000147 <_ZZ11processDatavE3__c_12>:
 147:	64 42 00                                            dB.

0000014a <_ZZ11processDatavE3__c_11>:
 14a:	4f 68 6d 00                                         Ohm.

0000014e <_ZZ11processDatavE3__c_10>:
 14e:	44 25 00                                            D%.

00000151 <_ZZ11processDatavE3__c_9>:
 151:	4d 41 49 4e 3a 20 00                                MAIN: .

00000158 <_ZZ11processDatavE3__c_8>:
 158:	42 45 45 50 20 00                                   BEEP .

0000015e <_ZZ11processDatavE3__c_7>:
 15e:	44 45 4c 54 41 20 00                                DELTA .

00000165 <_ZZ11processDatavE3__c_6>:
 165:	48 4f 4c 44 20 00                                   HOLD .

0000016b <_ZZ11processDatavE3__c_5>:
 16b:	52 45 43 20 00                                      REC .

00000170 <_ZZ11processDatavE3__c_4>:
 170:	43 52 45 53 54 20 00                                CREST .

00000177 <_ZZ11processDatavE3__c_3>:
 177:	4d 41 58 20 00                                      MAX .

0000017c <_ZZ11processDatavE3__c_2>:
 17c:	4d 49 4e 20 00                                      MIN .

00000181 <_ZZ11processDatavE3__c_1>:
 181:	41 56 47 20 00                                      AVG .

00000186 <_ZZ11processDatavE3__c_0>:
 186:	41 55 54 4f 20 00                                   AUTO .

0000018c <_ZZ11processDatavE3__c>:
 18c:	52 41 57 20 44 41 54 41 3a 20 00                    RAW DATA: .

00000197 <_ZZ4mainE3__c_5>:
 197:	52 20 2d 20 74 6f 67 67 6c 65 20 72 61 77 20 64     R - toggle raw d
 1a7:	61 74 61 20 6f 75 74 70 75 74 0a 00                 ata output..

000001b3 <_ZZ4mainE3__c_4>:
 1b3:	44 20 2d 20 73 65 6e 64 20 61 20 73 69 6e 67 6c     D - send a singl
 1c3:	65 20 72 65 61 64 69 6e 67 0a 00                    e reading..

000001ce <_ZZ4mainE3__c_3>:
 1ce:	53 20 2d 20 73 74 6f 70 20 61 75 74 6f 73 65 6e     S - stop autosen
 1de:	64 0a 00                                            d..

000001e1 <_ZZ4mainE3__c_2>:
 1e1:	4f 20 2d 20 31 20 73 61 6d 70 6c 65 20 70 65 72     O - 1 sample per
 1f1:	20 73 65 63 6f 6e 64 0a 00                           second..

000001fa <_ZZ4mainE3__c_1>:
 1fa:	46 20 2d 20 35 20 73 61 6d 70 6c 65 73 20 70 65     F - 5 samples pe
 20a:	72 20 73 65 63 6f 6e 64 0a 00                       r second..

00000214 <_ZZ4mainE3__c_0>:
 214:	41 76 61 69 6c 61 62 6c 65 20 63 6f 6d 6d 61 6e     Available comman
 224:	64 73 3a 0a 00                                      ds:..

00000229 <_ZZ4mainE3__c>:
 229:	42 72 79 6d 65 6e 20 38 36 37 2f 38 36 39 20 69     Brymen 867/869 i
 239:	6e 74 65 72 66 61 63 65 20 63 61 62 6c 65 0a 66     nterface cable.f
 249:	6f 72 20 6d 6f 72 65 20 69 6e 66 6f 2c 20 73 65     or more info, se
 259:	65 20 65 6d 62 65 64 62 6c 6f 67 2e 65 75 2f 3f     e embedblog.eu/?
 269:	70 3d 34 37 35 0a 00                                p=475..

00000270 <__ctors_end>:
 270:	11 24       	eor	r1, r1
 272:	1f be       	out	0x3f, r1	; 63
 274:	cf e5       	ldi	r28, 0x5F	; 95
 276:	d1 e0       	ldi	r29, 0x01	; 1
 278:	de bf       	out	0x3e, r29	; 62
 27a:	cd bf       	out	0x3d, r28	; 61

0000027c <__do_copy_data>:
 27c:	10 e0       	ldi	r17, 0x00	; 0
 27e:	a0 e6       	ldi	r26, 0x60	; 96
 280:	b0 e0       	ldi	r27, 0x00	; 0
 282:	ee ef       	ldi	r30, 0xFE	; 254
 284:	f8 e0       	ldi	r31, 0x08	; 8
 286:	02 c0       	rjmp	.+4      	; 0x28c <__do_copy_data+0x10>
 288:	05 90       	lpm	r0, Z+
 28a:	0d 92       	st	X+, r0
 28c:	a2 36       	cpi	r26, 0x62	; 98
 28e:	b1 07       	cpc	r27, r17
 290:	d9 f7       	brne	.-10     	; 0x288 <__do_copy_data+0xc>

00000292 <__do_clear_bss>:
 292:	20 e0       	ldi	r18, 0x00	; 0
 294:	a2 e6       	ldi	r26, 0x62	; 98
 296:	b0 e0       	ldi	r27, 0x00	; 0
 298:	01 c0       	rjmp	.+2      	; 0x29c <.do_clear_bss_start>

0000029a <.do_clear_bss_loop>:
 29a:	1d 92       	st	X+, r1

0000029c <.do_clear_bss_start>:
 29c:	a7 37       	cpi	r26, 0x77	; 119
 29e:	b2 07       	cpc	r27, r18
 2a0:	e1 f7       	brne	.-8      	; 0x29a <.do_clear_bss_loop>
 2a2:	d0 d1       	rcall	.+928    	; 0x644 <main>
 2a4:	2a c3       	rjmp	.+1620   	; 0x8fa <_exit>

000002a6 <__bad_interrupt>:
 2a6:	ac ce       	rjmp	.-680    	; 0x0 <__vectors>

000002a8 <_Z7getBytev>:

uint8_t data[20];
extern volatile bool rawData;

uint8_t getByte(void)
{
 2a8:	20 e0       	ldi	r18, 0x00	; 0
 2aa:	30 e0       	ldi	r19, 0x00	; 0
	uint8_t temp = 0;
 2ac:	80 e0       	ldi	r24, 0x00	; 0
		IRLED_HIGH;
		_delay_us(CLOCK_DELAY);
		
		IRLED_LOW;
		if (!IRTRAN_LOW)
			temp |= (1 << i);
 2ae:	61 e0       	ldi	r22, 0x01	; 1
 2b0:	70 e0       	ldi	r23, 0x00	; 0
{
	uint8_t temp = 0;

	for (uint8_t i = 0; i < 8; i ++)
	{
		IRLED_HIGH;
 2b2:	c0 9a       	sbi	0x18, 0	; 24
	#else
		//round up by default
		__ticks_dc = (uint32_t)(ceil(fabs(__tmp)));
	#endif

	__builtin_avr_delay_cycles(__ticks_dc);
 2b4:	e7 ec       	ldi	r30, 0xC7	; 199
 2b6:	f0 e0       	ldi	r31, 0x00	; 0
 2b8:	31 97       	sbiw	r30, 0x01	; 1
 2ba:	f1 f7       	brne	.-4      	; 0x2b8 <_Z7getBytev+0x10>
 2bc:	00 c0       	rjmp	.+0      	; 0x2be <_Z7getBytev+0x16>
 2be:	00 00       	nop
		_delay_us(CLOCK_DELAY);
		
		IRLED_LOW;
 2c0:	c0 98       	cbi	0x18, 0	; 24
		if (!IRTRAN_LOW)
 2c2:	b2 9b       	sbis	0x16, 2	; 22
 2c4:	08 c0       	rjmp	.+16     	; 0x2d6 <_Z7getBytev+0x2e>
			temp |= (1 << i);
 2c6:	ab 01       	movw	r20, r22
 2c8:	02 2e       	mov	r0, r18
 2ca:	02 c0       	rjmp	.+4      	; 0x2d0 <_Z7getBytev+0x28>
 2cc:	44 0f       	add	r20, r20
 2ce:	55 1f       	adc	r21, r21
 2d0:	0a 94       	dec	r0
 2d2:	e2 f7       	brpl	.-8      	; 0x2cc <_Z7getBytev+0x24>
 2d4:	84 2b       	or	r24, r20
 2d6:	e7 ec       	ldi	r30, 0xC7	; 199
 2d8:	f0 e0       	ldi	r31, 0x00	; 0
 2da:	31 97       	sbiw	r30, 0x01	; 1
 2dc:	f1 f7       	brne	.-4      	; 0x2da <_Z7getBytev+0x32>
 2de:	00 c0       	rjmp	.+0      	; 0x2e0 <_Z7getBytev+0x38>
 2e0:	00 00       	nop
 2e2:	2f 5f       	subi	r18, 0xFF	; 255
 2e4:	3f 4f       	sbci	r19, 0xFF	; 255

uint8_t getByte(void)
{
	uint8_t temp = 0;

	for (uint8_t i = 0; i < 8; i ++)
 2e6:	28 30       	cpi	r18, 0x08	; 8
 2e8:	31 05       	cpc	r19, r1
 2ea:	19 f7       	brne	.-58     	; 0x2b2 <_Z7getBytev+0xa>
			temp |= (1 << i);
		_delay_us(CLOCK_DELAY);
	}

	return temp;
}
 2ec:	08 95       	ret

000002ee <_Z7getDatav>:

uint8_t getData(void)
{
 2ee:	0f 93       	push	r16
 2f0:	1f 93       	push	r17
 2f2:	cf 93       	push	r28
 2f4:	df 93       	push	r29
	IRLED_HIGH;
 2f6:	c0 9a       	sbi	0x18, 0	; 24
	#else
		//round up by default
		__ticks_dc = (uint32_t)(ceil(fabs(__tmp)));
	#endif

	__builtin_avr_delay_cycles(__ticks_dc);
 2f8:	8f e1       	ldi	r24, 0x1F	; 31
 2fa:	9e e4       	ldi	r25, 0x4E	; 78
 2fc:	01 97       	sbiw	r24, 0x01	; 1
 2fe:	f1 f7       	brne	.-4      	; 0x2fc <_Z7getDatav+0xe>
 300:	00 c0       	rjmp	.+0      	; 0x302 <_Z7getDatav+0x14>
 302:	00 00       	nop
	_delay_ms(10);
	IRLED_LOW;
 304:	c0 98       	cbi	0x18, 0	; 24

	uint8_t timeout = 0xFF;
	while (!IRTRAN_LOW)
 306:	b2 99       	sbic	0x16, 2	; 22
 308:	04 c0       	rjmp	.+8      	; 0x312 <_Z7getDatav+0x24>
 30a:	14 c0       	rjmp	.+40     	; 0x334 <_Z7getDatav+0x46>
 30c:	81 50       	subi	r24, 0x01	; 1
	{
		timeout--;
		if (!timeout)	return 0;
 30e:	11 f4       	brne	.+4      	; 0x314 <_Z7getDatav+0x26>
 310:	16 c0       	rjmp	.+44     	; 0x33e <_Z7getDatav+0x50>
	IRLED_HIGH;
	_delay_ms(10);
	IRLED_LOW;

	uint8_t timeout = 0xFF;
	while (!IRTRAN_LOW)
 312:	8e ef       	ldi	r24, 0xFE	; 254
	#else
		//round up by default
		__ticks_dc = (uint32_t)(ceil(fabs(__tmp)));
	#endif

	__builtin_avr_delay_cycles(__ticks_dc);
 314:	ef e9       	ldi	r30, 0x9F	; 159
 316:	ff e0       	ldi	r31, 0x0F	; 15
 318:	31 97       	sbiw	r30, 0x01	; 1
 31a:	f1 f7       	brne	.-4      	; 0x318 <_Z7getDatav+0x2a>
 31c:	00 c0       	rjmp	.+0      	; 0x31e <_Z7getDatav+0x30>
 31e:	00 00       	nop
 320:	b2 99       	sbic	0x16, 2	; 22
 322:	f4 cf       	rjmp	.-24     	; 0x30c <_Z7getDatav+0x1e>
 324:	07 c0       	rjmp	.+14     	; 0x334 <_Z7getDatav+0x46>
		if (!timeout)	return 0;
		_delay_us(2000);
	}

	for (uint8_t i = 0; i < 20; i ++)
		data[i] = getByte();
 326:	c0 df       	rcall	.-128    	; 0x2a8 <_Z7getBytev>
 328:	89 93       	st	Y+, r24
		timeout--;
		if (!timeout)	return 0;
		_delay_us(2000);
	}

	for (uint8_t i = 0; i < 20; i ++)
 32a:	c0 17       	cp	r28, r16
 32c:	d1 07       	cpc	r29, r17
 32e:	d9 f7       	brne	.-10     	; 0x326 <_Z7getDatav+0x38>
		data[i] = getByte();

	return 1;
 330:	81 e0       	ldi	r24, 0x01	; 1
 332:	05 c0       	rjmp	.+10     	; 0x33e <_Z7getDatav+0x50>
 334:	c2 e6       	ldi	r28, 0x62	; 98
 336:	d0 e0       	ldi	r29, 0x00	; 0
 338:	06 e7       	ldi	r16, 0x76	; 118
 33a:	10 e0       	ldi	r17, 0x00	; 0
 33c:	f4 cf       	rjmp	.-24     	; 0x326 <_Z7getDatav+0x38>
}
 33e:	df 91       	pop	r29
 340:	cf 91       	pop	r28
 342:	1f 91       	pop	r17
 344:	0f 91       	pop	r16
 346:	08 95       	ret

00000348 <_Z11decodeDigith>:

int8_t decodeDigit(uint8_t source)
{
	int8_t result = 0;

	switch (source >> 1)
 348:	e8 2f       	mov	r30, r24
 34a:	f0 e0       	ldi	r31, 0x00	; 0
 34c:	f5 95       	asr	r31
 34e:	e7 95       	ror	r30
 350:	e1 5f       	subi	r30, 0xF1	; 241
 352:	ff 4f       	sbci	r31, 0xFF	; 255
 354:	09 94       	ijmp
	{
		case 0b1011111: result = 0; break;
		case 0b1010000: result = 1; break;
 356:	81 e0       	ldi	r24, 0x01	; 1
 358:	08 95       	ret
		case 0b1101101: result = 2; break;
 35a:	82 e0       	ldi	r24, 0x02	; 2
 35c:	08 95       	ret
		case 0b1111100: result = 3; break;
 35e:	83 e0       	ldi	r24, 0x03	; 3
 360:	08 95       	ret
		case 0b1110010: result = 4; break;
 362:	84 e0       	ldi	r24, 0x04	; 4
 364:	08 95       	ret
		case 0b0111110: result = 5; break;
 366:	85 e0       	ldi	r24, 0x05	; 5
 368:	08 95       	ret
		case 0b0111111: result = 6; break;
 36a:	86 e0       	ldi	r24, 0x06	; 6
 36c:	08 95       	ret
		case 0b1010100: result = 7; break;
 36e:	87 e0       	ldi	r24, 0x07	; 7
 370:	08 95       	ret
		case 0b1111111: result = 8; break;
 372:	88 e0       	ldi	r24, 0x08	; 8
 374:	08 95       	ret
		case 0b1111110: result = 9; break;
 376:	89 e0       	ldi	r24, 0x09	; 9
 378:	08 95       	ret
		case 0b1111001: result = ('d' - 48); break;
 37a:	84 e3       	ldi	r24, 0x34	; 52
 37c:	08 95       	ret
		case 0b0010000: result = ('i' - 48); break;
 37e:	89 e3       	ldi	r24, 0x39	; 57
 380:	08 95       	ret
		case 0b0111001: result = ('o' - 48); break;
 382:	8f e3       	ldi	r24, 0x3F	; 63
 384:	08 95       	ret
		case 0b0001011: result = ('L' - 48); break;
 386:	8c e1       	ldi	r24, 0x1C	; 28
 388:	08 95       	ret
		case 0b0000000: result = (' ' - 48); break;
 38a:	80 ef       	ldi	r24, 0xF0	; 240
 38c:	08 95       	ret
		default: result = ('?' - 48); break;
 38e:	8f e0       	ldi	r24, 0x0F	; 15
 390:	08 95       	ret
{
	int8_t result = 0;

	switch (source >> 1)
	{
		case 0b1011111: result = 0; break;
 392:	80 e0       	ldi	r24, 0x00	; 0
		case 0b0000000: result = (' ' - 48); break;
		default: result = ('?' - 48); break;
	}

	return result;
}
 394:	08 95       	ret

00000396 <_Z11processDatav>:

	return 1;
}

void processData(void)
{
 396:	ff 92       	push	r15
 398:	0f 93       	push	r16
 39a:	1f 93       	push	r17
 39c:	cf 93       	push	r28
 39e:	df 93       	push	r29
	if (rawData)
 3a0:	80 91 76 00 	lds	r24, 0x0076	; 0x800076 <rawData>
 3a4:	88 23       	and	r24, r24
 3a6:	99 f0       	breq	.+38     	; 0x3ce <_Z11processDatav+0x38>
	{
		uart_sendString_P(PSTR("RAW DATA: "));
 3a8:	8c e8       	ldi	r24, 0x8C	; 140
 3aa:	91 e0       	ldi	r25, 0x01	; 1
 3ac:	dc d1       	rcall	.+952    	; 0x766 <_Z17uart_sendString_PPKc>
 3ae:	c2 e6       	ldi	r28, 0x62	; 98
 3b0:	d0 e0       	ldi	r29, 0x00	; 0
 3b2:	06 e7       	ldi	r16, 0x76	; 118
 3b4:	10 e0       	ldi	r17, 0x00	; 0
		
		for (uint8_t i = 0; i < 20; i++)
		{
			uart_sendNumber(data[i], 16);
 3b6:	89 91       	ld	r24, Y+
 3b8:	60 e1       	ldi	r22, 0x10	; 16
 3ba:	90 e0       	ldi	r25, 0x00	; 0
 3bc:	e6 d1       	rcall	.+972    	; 0x78a <_Z15uart_sendNumberjh>
			uart_sendChar(' ');
 3be:	80 e2       	ldi	r24, 0x20	; 32
 3c0:	9a d1       	rcall	.+820    	; 0x6f6 <_Z13uart_sendCharh>
{
	if (rawData)
	{
		uart_sendString_P(PSTR("RAW DATA: "));
		
		for (uint8_t i = 0; i < 20; i++)
 3c2:	c0 17       	cp	r28, r16
 3c4:	d1 07       	cpc	r29, r17
 3c6:	b9 f7       	brne	.-18     	; 0x3b6 <_Z11processDatav+0x20>
		{
			uart_sendNumber(data[i], 16);
			uart_sendChar(' ');
		}

		uart_sendChar('\n');
 3c8:	8a e0       	ldi	r24, 0x0A	; 10
 3ca:	95 d1       	rcall	.+810    	; 0x6f6 <_Z13uart_sendCharh>
		return;
 3cc:	35 c1       	rjmp	.+618    	; 0x638 <__LOCK_REGION_LENGTH__+0x238>
	}

	//decode the output
	if (data[0] & 0x01)
 3ce:	80 91 62 00 	lds	r24, 0x0062	; 0x800062 <__data_end>
 3d2:	80 ff       	sbrs	r24, 0
 3d4:	03 c0       	rjmp	.+6      	; 0x3dc <_Z11processDatav+0x46>
		uart_sendString_P(PSTR("AUTO "));
 3d6:	86 e8       	ldi	r24, 0x86	; 134
 3d8:	91 e0       	ldi	r25, 0x01	; 1
 3da:	c5 d1       	rcall	.+906    	; 0x766 <_Z17uart_sendString_PPKc>
	if ((data[0] >> 7) & 0x01)
 3dc:	80 91 62 00 	lds	r24, 0x0062	; 0x800062 <__data_end>
 3e0:	88 23       	and	r24, r24
 3e2:	1c f4       	brge	.+6      	; 0x3ea <_Z11processDatav+0x54>
		uart_sendString_P(PSTR("AVG "));
 3e4:	81 e8       	ldi	r24, 0x81	; 129
 3e6:	91 e0       	ldi	r25, 0x01	; 1
 3e8:	be d1       	rcall	.+892    	; 0x766 <_Z17uart_sendString_PPKc>
	if ((data[0] >> 6) & 0x01)
 3ea:	80 91 62 00 	lds	r24, 0x0062	; 0x800062 <__data_end>
 3ee:	86 ff       	sbrs	r24, 6
 3f0:	03 c0       	rjmp	.+6      	; 0x3f8 <_Z11processDatav+0x62>
		uart_sendString_P(PSTR("MIN "));
 3f2:	8c e7       	ldi	r24, 0x7C	; 124
 3f4:	91 e0       	ldi	r25, 0x01	; 1
 3f6:	b7 d1       	rcall	.+878    	; 0x766 <_Z17uart_sendString_PPKc>
	if ((data[0] >> 5) & 0x01)
 3f8:	80 91 62 00 	lds	r24, 0x0062	; 0x800062 <__data_end>
 3fc:	85 ff       	sbrs	r24, 5
 3fe:	03 c0       	rjmp	.+6      	; 0x406 <__LOCK_REGION_LENGTH__+0x6>
		uart_sendString_P(PSTR("MAX "));
 400:	87 e7       	ldi	r24, 0x77	; 119
 402:	91 e0       	ldi	r25, 0x01	; 1
 404:	b0 d1       	rcall	.+864    	; 0x766 <_Z17uart_sendString_PPKc>
	if ((data[0] >> 2) & 0x01)
 406:	80 91 62 00 	lds	r24, 0x0062	; 0x800062 <__data_end>
 40a:	82 ff       	sbrs	r24, 2
 40c:	03 c0       	rjmp	.+6      	; 0x414 <__LOCK_REGION_LENGTH__+0x14>
		uart_sendString_P(PSTR("CREST "));
 40e:	80 e7       	ldi	r24, 0x70	; 112
 410:	91 e0       	ldi	r25, 0x01	; 1
 412:	a9 d1       	rcall	.+850    	; 0x766 <_Z17uart_sendString_PPKc>
	if ((data[0] >> 1) & 0x01)
 414:	80 91 62 00 	lds	r24, 0x0062	; 0x800062 <__data_end>
 418:	81 ff       	sbrs	r24, 1
 41a:	03 c0       	rjmp	.+6      	; 0x422 <__LOCK_REGION_LENGTH__+0x22>
		uart_sendString_P(PSTR("REC "));
 41c:	8b e6       	ldi	r24, 0x6B	; 107
 41e:	91 e0       	ldi	r25, 0x01	; 1
 420:	a2 d1       	rcall	.+836    	; 0x766 <_Z17uart_sendString_PPKc>
	if ((data[0] >> 3) & 0x01)
 422:	80 91 62 00 	lds	r24, 0x0062	; 0x800062 <__data_end>
 426:	83 ff       	sbrs	r24, 3
 428:	03 c0       	rjmp	.+6      	; 0x430 <__LOCK_REGION_LENGTH__+0x30>
		uart_sendString_P(PSTR("HOLD "));
 42a:	85 e6       	ldi	r24, 0x65	; 101
 42c:	91 e0       	ldi	r25, 0x01	; 1
 42e:	9b d1       	rcall	.+822    	; 0x766 <_Z17uart_sendString_PPKc>
	if (data[2] & 0x01)
 430:	80 91 64 00 	lds	r24, 0x0064	; 0x800064 <__data_end+0x2>
 434:	80 ff       	sbrs	r24, 0
 436:	03 c0       	rjmp	.+6      	; 0x43e <__LOCK_REGION_LENGTH__+0x3e>
		uart_sendString_P(PSTR("DELTA "));
 438:	8e e5       	ldi	r24, 0x5E	; 94
 43a:	91 e0       	ldi	r25, 0x01	; 1
 43c:	94 d1       	rcall	.+808    	; 0x766 <_Z17uart_sendString_PPKc>
	if (data[9] & 0x01)
 43e:	80 91 6b 00 	lds	r24, 0x006B	; 0x80006b <__data_end+0x9>
 442:	80 ff       	sbrs	r24, 0
 444:	03 c0       	rjmp	.+6      	; 0x44c <__LOCK_REGION_LENGTH__+0x4c>
		uart_sendString_P(PSTR("BEEP "));
 446:	88 e5       	ldi	r24, 0x58	; 88
 448:	91 e0       	ldi	r25, 0x01	; 1
 44a:	8d d1       	rcall	.+794    	; 0x766 <_Z17uart_sendString_PPKc>

	//DECODE MAIN DISPLAY
	uart_sendString_P(PSTR("MAIN: "));
 44c:	81 e5       	ldi	r24, 0x51	; 81
 44e:	91 e0       	ldi	r25, 0x01	; 1
 450:	8a d1       	rcall	.+788    	; 0x766 <_Z17uart_sendString_PPKc>

	if ((data[1] >> 7) & 0x01)
 452:	80 91 63 00 	lds	r24, 0x0063	; 0x800063 <__data_end+0x1>
 456:	88 23       	and	r24, r24
 458:	0c f0       	brlt	.+2      	; 0x45c <__LOCK_REGION_LENGTH__+0x5c>
 45a:	e2 c0       	rjmp	.+452    	; 0x620 <__LOCK_REGION_LENGTH__+0x220>
		uart_sendChar('-');
 45c:	8d e2       	ldi	r24, 0x2D	; 45
 45e:	4b d1       	rcall	.+662    	; 0x6f6 <_Z13uart_sendCharh>
 460:	df c0       	rjmp	.+446    	; 0x620 <__LOCK_REGION_LENGTH__+0x220>

	for (uint8_t i = 0; i < 6; i++)
	{
		uart_sendChar(48 + decodeDigit(data[2 + i]));
 462:	f8 01       	movw	r30, r16
 464:	81 91       	ld	r24, Z+
 466:	8f 01       	movw	r16, r30
 468:	6f df       	rcall	.-290    	; 0x348 <_Z11decodeDigith>
 46a:	80 5d       	subi	r24, 0xD0	; 208
 46c:	44 d1       	rcall	.+648    	; 0x6f6 <_Z13uart_sendCharh>
		if ((data[3 + i] & 0x01) & (i < 4))
 46e:	f8 01       	movw	r30, r16
 470:	80 81       	ld	r24, Z
 472:	80 ff       	sbrs	r24, 0
 474:	08 c0       	rjmp	.+16     	; 0x486 <__LOCK_REGION_LENGTH__+0x86>
 476:	8d 2f       	mov	r24, r29
 478:	c4 30       	cpi	r28, 0x04	; 4
 47a:	08 f0       	brcs	.+2      	; 0x47e <__LOCK_REGION_LENGTH__+0x7e>
 47c:	8f 2d       	mov	r24, r15
 47e:	88 23       	and	r24, r24
 480:	11 f0       	breq	.+4      	; 0x486 <__LOCK_REGION_LENGTH__+0x86>
		uart_sendChar('.');
 482:	8e e2       	ldi	r24, 0x2E	; 46
 484:	38 d1       	rcall	.+624    	; 0x6f6 <_Z13uart_sendCharh>
	uart_sendString_P(PSTR("MAIN: "));

	if ((data[1] >> 7) & 0x01)
		uart_sendChar('-');

	for (uint8_t i = 0; i < 6; i++)
 486:	cf 5f       	subi	r28, 0xFF	; 255
 488:	c6 30       	cpi	r28, 0x06	; 6
 48a:	59 f7       	brne	.-42     	; 0x462 <__LOCK_REGION_LENGTH__+0x62>
	{
		uart_sendChar(48 + decodeDigit(data[2 + i]));
		if ((data[3 + i] & 0x01) & (i < 4))
		uart_sendChar('.');
	}
	uart_sendChar(' ');
 48c:	80 e2       	ldi	r24, 0x20	; 32
 48e:	33 d1       	rcall	.+614    	; 0x6f6 <_Z13uart_sendCharh>
	
	//DECODE UNIT PREFIX FOR MAIN DISPLAY
	if ((data[13] >> 6) & 0x01)
 490:	80 91 6f 00 	lds	r24, 0x006F	; 0x80006f <__data_end+0xd>
 494:	86 ff       	sbrs	r24, 6
 496:	02 c0       	rjmp	.+4      	; 0x49c <__LOCK_REGION_LENGTH__+0x9c>
		uart_sendChar('n');
 498:	8e e6       	ldi	r24, 0x6E	; 110
 49a:	2d d1       	rcall	.+602    	; 0x6f6 <_Z13uart_sendCharh>
	if ((data[14] >> 3) & 0x01)
 49c:	80 91 70 00 	lds	r24, 0x0070	; 0x800070 <__data_end+0xe>
 4a0:	83 ff       	sbrs	r24, 3
 4a2:	02 c0       	rjmp	.+4      	; 0x4a8 <__LOCK_REGION_LENGTH__+0xa8>
		uart_sendChar('u');
 4a4:	85 e7       	ldi	r24, 0x75	; 117
 4a6:	27 d1       	rcall	.+590    	; 0x6f6 <_Z13uart_sendCharh>
	if ((data[14] >> 2) & 0x01)
 4a8:	80 91 70 00 	lds	r24, 0x0070	; 0x800070 <__data_end+0xe>
 4ac:	82 ff       	sbrs	r24, 2
 4ae:	02 c0       	rjmp	.+4      	; 0x4b4 <__LOCK_REGION_LENGTH__+0xb4>
		uart_sendChar('m');
 4b0:	8d e6       	ldi	r24, 0x6D	; 109
 4b2:	21 d1       	rcall	.+578    	; 0x6f6 <_Z13uart_sendCharh>
	if ((data[14] >> 6) & 0x01)
 4b4:	80 91 70 00 	lds	r24, 0x0070	; 0x800070 <__data_end+0xe>
 4b8:	86 ff       	sbrs	r24, 6
 4ba:	02 c0       	rjmp	.+4      	; 0x4c0 <__LOCK_REGION_LENGTH__+0xc0>
		uart_sendChar('k');
 4bc:	8b e6       	ldi	r24, 0x6B	; 107
 4be:	1b d1       	rcall	.+566    	; 0x6f6 <_Z13uart_sendCharh>
	if ((data[14] >> 5) & 0x01)
 4c0:	80 91 70 00 	lds	r24, 0x0070	; 0x800070 <__data_end+0xe>
 4c4:	85 ff       	sbrs	r24, 5
 4c6:	02 c0       	rjmp	.+4      	; 0x4cc <__LOCK_REGION_LENGTH__+0xcc>
		uart_sendChar('M');
 4c8:	8d e4       	ldi	r24, 0x4D	; 77
 4ca:	15 d1       	rcall	.+554    	; 0x6f6 <_Z13uart_sendCharh>
	
	//DECODE UNIT FOR MAIN DISPLAY
	if (data[7] & 0x01)
 4cc:	80 91 69 00 	lds	r24, 0x0069	; 0x800069 <__data_end+0x7>
 4d0:	80 ff       	sbrs	r24, 0
 4d2:	02 c0       	rjmp	.+4      	; 0x4d8 <__LOCK_REGION_LENGTH__+0xd8>
		uart_sendChar('V');
 4d4:	86 e5       	ldi	r24, 0x56	; 86
 4d6:	0f d1       	rcall	.+542    	; 0x6f6 <_Z13uart_sendCharh>
	if ((data[13] >> 7) & 0x01)
 4d8:	80 91 6f 00 	lds	r24, 0x006F	; 0x80006f <__data_end+0xd>
 4dc:	88 23       	and	r24, r24
 4de:	14 f4       	brge	.+4      	; 0x4e4 <__LOCK_REGION_LENGTH__+0xe4>
		uart_sendChar('A');
 4e0:	81 e4       	ldi	r24, 0x41	; 65
 4e2:	09 d1       	rcall	.+530    	; 0x6f6 <_Z13uart_sendCharh>
	if ((data[13] >> 5) & 0x01)
 4e4:	80 91 6f 00 	lds	r24, 0x006F	; 0x80006f <__data_end+0xd>
 4e8:	85 ff       	sbrs	r24, 5
 4ea:	02 c0       	rjmp	.+4      	; 0x4f0 <__LOCK_REGION_LENGTH__+0xf0>
		uart_sendChar('F');
 4ec:	86 e4       	ldi	r24, 0x46	; 70
 4ee:	03 d1       	rcall	.+518    	; 0x6f6 <_Z13uart_sendCharh>
	if ((data[13] >> 4) & 0x01)
 4f0:	80 91 6f 00 	lds	r24, 0x006F	; 0x80006f <__data_end+0xd>
 4f4:	84 ff       	sbrs	r24, 4
 4f6:	02 c0       	rjmp	.+4      	; 0x4fc <__LOCK_REGION_LENGTH__+0xfc>
		uart_sendChar('S');
 4f8:	83 e5       	ldi	r24, 0x53	; 83
 4fa:	fd d0       	rcall	.+506    	; 0x6f6 <_Z13uart_sendCharh>
	if ((data[14] >> 7) & 0x01)
 4fc:	80 91 70 00 	lds	r24, 0x0070	; 0x800070 <__data_end+0xe>
 500:	88 23       	and	r24, r24
 502:	1c f4       	brge	.+6      	; 0x50a <__LOCK_REGION_LENGTH__+0x10a>
		uart_sendString_P(PSTR("D%"));
 504:	8e e4       	ldi	r24, 0x4E	; 78
 506:	91 e0       	ldi	r25, 0x01	; 1
 508:	2e d1       	rcall	.+604    	; 0x766 <_Z17uart_sendString_PPKc>
	if ((data[14] >> 4) & 0x01)
 50a:	80 91 70 00 	lds	r24, 0x0070	; 0x800070 <__data_end+0xe>
 50e:	84 ff       	sbrs	r24, 4
 510:	03 c0       	rjmp	.+6      	; 0x518 <__LOCK_REGION_LENGTH__+0x118>
		uart_sendString_P(PSTR("Ohm"));
 512:	8a e4       	ldi	r24, 0x4A	; 74
 514:	91 e0       	ldi	r25, 0x01	; 1
 516:	27 d1       	rcall	.+590    	; 0x766 <_Z17uart_sendString_PPKc>
	if ((data[14] >> 1) & 0x01)
 518:	80 91 70 00 	lds	r24, 0x0070	; 0x800070 <__data_end+0xe>
 51c:	81 ff       	sbrs	r24, 1
 51e:	03 c0       	rjmp	.+6      	; 0x526 <__LOCK_REGION_LENGTH__+0x126>
		uart_sendString_P(PSTR("dB"));
 520:	87 e4       	ldi	r24, 0x47	; 71
 522:	91 e0       	ldi	r25, 0x01	; 1
 524:	20 d1       	rcall	.+576    	; 0x766 <_Z17uart_sendString_PPKc>
	if (data[14] & 0x01)
 526:	80 91 70 00 	lds	r24, 0x0070	; 0x800070 <__data_end+0xe>
 52a:	80 ff       	sbrs	r24, 0
 52c:	03 c0       	rjmp	.+6      	; 0x534 <__LOCK_REGION_LENGTH__+0x134>
		uart_sendString_P(PSTR("Hz"));
 52e:	84 e4       	ldi	r24, 0x44	; 68
 530:	91 e0       	ldi	r25, 0x01	; 1
 532:	19 d1       	rcall	.+562    	; 0x766 <_Z17uart_sendString_PPKc>
	uart_sendChar(' ');
 534:	80 e2       	ldi	r24, 0x20	; 32
 536:	df d0       	rcall	.+446    	; 0x6f6 <_Z13uart_sendCharh>

	//DC OR AC
	if ((data[0] >> 4) & 0x01)
 538:	80 91 62 00 	lds	r24, 0x0062	; 0x800062 <__data_end>
 53c:	84 ff       	sbrs	r24, 4
 53e:	03 c0       	rjmp	.+6      	; 0x546 <__LOCK_REGION_LENGTH__+0x146>
		uart_sendString_P(PSTR("DC "));
 540:	80 e4       	ldi	r24, 0x40	; 64
 542:	91 e0       	ldi	r25, 0x01	; 1
 544:	10 d1       	rcall	.+544    	; 0x766 <_Z17uart_sendString_PPKc>
	if (data[1] & 0x01)
 546:	80 91 63 00 	lds	r24, 0x0063	; 0x800063 <__data_end+0x1>
 54a:	80 ff       	sbrs	r24, 0
 54c:	03 c0       	rjmp	.+6      	; 0x554 <__LOCK_REGION_LENGTH__+0x154>
		uart_sendString_P(PSTR("AC "));
 54e:	8c e3       	ldi	r24, 0x3C	; 60
 550:	91 e0       	ldi	r25, 0x01	; 1
 552:	09 d1       	rcall	.+530    	; 0x766 <_Z17uart_sendString_PPKc>

	//DECODE AUXILIARY DISPLAY
		uart_sendString_P(PSTR("AUX: "));
 554:	86 e3       	ldi	r24, 0x36	; 54
 556:	91 e0       	ldi	r25, 0x01	; 1
 558:	06 d1       	rcall	.+524    	; 0x766 <_Z17uart_sendString_PPKc>

	if ((data[8] >> 4) & 0x01)
 55a:	80 91 6a 00 	lds	r24, 0x006A	; 0x80006a <__data_end+0x8>
 55e:	84 ff       	sbrs	r24, 4
 560:	65 c0       	rjmp	.+202    	; 0x62c <__LOCK_REGION_LENGTH__+0x22c>
		uart_sendChar('-');
 562:	8d e2       	ldi	r24, 0x2D	; 45
 564:	c8 d0       	rcall	.+400    	; 0x6f6 <_Z13uart_sendCharh>
 566:	62 c0       	rjmp	.+196    	; 0x62c <__LOCK_REGION_LENGTH__+0x22c>

	for (uint8_t i = 0; i < 4; i++)
	{
		uart_sendChar(48 + decodeDigit(data[9 + i]));
 568:	f8 01       	movw	r30, r16
 56a:	81 91       	ld	r24, Z+
 56c:	8f 01       	movw	r16, r30
 56e:	ec de       	rcall	.-552    	; 0x348 <_Z11decodeDigith>
 570:	80 5d       	subi	r24, 0xD0	; 208
 572:	c1 d0       	rcall	.+386    	; 0x6f6 <_Z13uart_sendCharh>
		if ((data[10 + i] & 0x01) & (i < 3))
 574:	f8 01       	movw	r30, r16
 576:	80 81       	ld	r24, Z
 578:	80 ff       	sbrs	r24, 0
 57a:	08 c0       	rjmp	.+16     	; 0x58c <__LOCK_REGION_LENGTH__+0x18c>
 57c:	8d 2f       	mov	r24, r29
 57e:	c3 30       	cpi	r28, 0x03	; 3
 580:	08 f0       	brcs	.+2      	; 0x584 <__LOCK_REGION_LENGTH__+0x184>
 582:	8f 2d       	mov	r24, r15
 584:	88 23       	and	r24, r24
 586:	11 f0       	breq	.+4      	; 0x58c <__LOCK_REGION_LENGTH__+0x18c>
		uart_sendChar('.');
 588:	8e e2       	ldi	r24, 0x2E	; 46
 58a:	b5 d0       	rcall	.+362    	; 0x6f6 <_Z13uart_sendCharh>
		uart_sendString_P(PSTR("AUX: "));

	if ((data[8] >> 4) & 0x01)
		uart_sendChar('-');

	for (uint8_t i = 0; i < 4; i++)
 58c:	cf 5f       	subi	r28, 0xFF	; 255
 58e:	c4 30       	cpi	r28, 0x04	; 4
 590:	59 f7       	brne	.-42     	; 0x568 <__LOCK_REGION_LENGTH__+0x168>
		uart_sendChar(48 + decodeDigit(data[9 + i]));
		if ((data[10 + i] & 0x01) & (i < 3))
		uart_sendChar('.');
	}
	
	uart_sendChar(' ');
 592:	80 e2       	ldi	r24, 0x20	; 32
 594:	b0 d0       	rcall	.+352    	; 0x6f6 <_Z13uart_sendCharh>

	//DECODE UNIT PREFIX FOR AUXILIARY DISPLAY
	if ((data[8] >> 1) & 0x01)
 596:	80 91 6a 00 	lds	r24, 0x006A	; 0x80006a <__data_end+0x8>
 59a:	81 ff       	sbrs	r24, 1
 59c:	02 c0       	rjmp	.+4      	; 0x5a2 <__LOCK_REGION_LENGTH__+0x1a2>
		uart_sendChar('m');
 59e:	8d e6       	ldi	r24, 0x6D	; 109
 5a0:	aa d0       	rcall	.+340    	; 0x6f6 <_Z13uart_sendCharh>
	if (data[8] & 0x01)
 5a2:	80 91 6a 00 	lds	r24, 0x006A	; 0x80006a <__data_end+0x8>
 5a6:	80 ff       	sbrs	r24, 0
 5a8:	02 c0       	rjmp	.+4      	; 0x5ae <__LOCK_REGION_LENGTH__+0x1ae>
		uart_sendChar('u');
 5aa:	85 e7       	ldi	r24, 0x75	; 117
 5ac:	a4 d0       	rcall	.+328    	; 0x6f6 <_Z13uart_sendCharh>
	if ((data[13] >> 1) & 0x01)
 5ae:	80 91 6f 00 	lds	r24, 0x006F	; 0x80006f <__data_end+0xd>
 5b2:	81 ff       	sbrs	r24, 1
 5b4:	02 c0       	rjmp	.+4      	; 0x5ba <__LOCK_REGION_LENGTH__+0x1ba>
		uart_sendChar('k');
 5b6:	8b e6       	ldi	r24, 0x6B	; 107
 5b8:	9e d0       	rcall	.+316    	; 0x6f6 <_Z13uart_sendCharh>
	if (data[13] & 0x01)
 5ba:	80 91 6f 00 	lds	r24, 0x006F	; 0x80006f <__data_end+0xd>
 5be:	80 ff       	sbrs	r24, 0
 5c0:	02 c0       	rjmp	.+4      	; 0x5c6 <__LOCK_REGION_LENGTH__+0x1c6>
		uart_sendChar('M');
 5c2:	8d e4       	ldi	r24, 0x4D	; 77
 5c4:	98 d0       	rcall	.+304    	; 0x6f6 <_Z13uart_sendCharh>

	//DECODE UNIT FOR AUXILIARY DISPLAY
	if ((data[13] >> 2) & 0x01)
 5c6:	80 91 6f 00 	lds	r24, 0x006F	; 0x80006f <__data_end+0xd>
 5ca:	82 ff       	sbrs	r24, 2
 5cc:	03 c0       	rjmp	.+6      	; 0x5d4 <__LOCK_REGION_LENGTH__+0x1d4>
		uart_sendString_P(PSTR("Hz"));
 5ce:	83 e3       	ldi	r24, 0x33	; 51
 5d0:	91 e0       	ldi	r25, 0x01	; 1
 5d2:	c9 d0       	rcall	.+402    	; 0x766 <_Z17uart_sendString_PPKc>
	if ((data[13] >> 3) & 0x01)
 5d4:	80 91 6f 00 	lds	r24, 0x006F	; 0x80006f <__data_end+0xd>
 5d8:	83 ff       	sbrs	r24, 3
 5da:	02 c0       	rjmp	.+4      	; 0x5e0 <__LOCK_REGION_LENGTH__+0x1e0>
		uart_sendChar('V');
 5dc:	86 e5       	ldi	r24, 0x56	; 86
 5de:	8b d0       	rcall	.+278    	; 0x6f6 <_Z13uart_sendCharh>
	if ((data[8] >> 2) & 0x01)
 5e0:	80 91 6a 00 	lds	r24, 0x006A	; 0x80006a <__data_end+0x8>
 5e4:	82 ff       	sbrs	r24, 2
 5e6:	02 c0       	rjmp	.+4      	; 0x5ec <__LOCK_REGION_LENGTH__+0x1ec>
		uart_sendChar('A');
 5e8:	81 e4       	ldi	r24, 0x41	; 65
 5ea:	85 d0       	rcall	.+266    	; 0x6f6 <_Z13uart_sendCharh>
	if ((data[8] >> 3) & 0x01)
 5ec:	80 91 6a 00 	lds	r24, 0x006A	; 0x80006a <__data_end+0x8>
 5f0:	83 ff       	sbrs	r24, 3
 5f2:	03 c0       	rjmp	.+6      	; 0x5fa <__LOCK_REGION_LENGTH__+0x1fa>
		uart_sendString_P(PSTR("%4-20mA"));
 5f4:	8b e2       	ldi	r24, 0x2B	; 43
 5f6:	91 e0       	ldi	r25, 0x01	; 1
 5f8:	b6 d0       	rcall	.+364    	; 0x766 <_Z17uart_sendString_PPKc>
		uart_sendChar(' ');
 5fa:	80 e2       	ldi	r24, 0x20	; 32
 5fc:	7c d0       	rcall	.+248    	; 0x6f6 <_Z13uart_sendCharh>
	if ((data[13] >> 2) & 0x01)
 5fe:	80 91 6f 00 	lds	r24, 0x006F	; 0x80006f <__data_end+0xd>
 602:	82 ff       	sbrs	r24, 2
 604:	03 c0       	rjmp	.+6      	; 0x60c <__LOCK_REGION_LENGTH__+0x20c>
		uart_sendString_P(PSTR("AC "));
 606:	87 e2       	ldi	r24, 0x27	; 39
 608:	91 e0       	ldi	r25, 0x01	; 1
 60a:	ad d0       	rcall	.+346    	; 0x766 <_Z17uart_sendString_PPKc>

	//FINISH
	uart_sendChar('\n');
 60c:	8a e0       	ldi	r24, 0x0A	; 10
 60e:	73 d0       	rcall	.+230    	; 0x6f6 <_Z13uart_sendCharh>

	//detect low battery
	if ((data[8] >> 7) & 0x01)
 610:	80 91 6a 00 	lds	r24, 0x006A	; 0x80006a <__data_end+0x8>
 614:	88 23       	and	r24, r24
 616:	84 f4       	brge	.+32     	; 0x638 <__LOCK_REGION_LENGTH__+0x238>
		uart_sendString_P(PSTR("LOW BAT\n"));
 618:	8e e1       	ldi	r24, 0x1E	; 30
 61a:	91 e0       	ldi	r25, 0x01	; 1
 61c:	a4 d0       	rcall	.+328    	; 0x766 <_Z17uart_sendString_PPKc>
 61e:	0c c0       	rjmp	.+24     	; 0x638 <__LOCK_REGION_LENGTH__+0x238>
 620:	04 e6       	ldi	r16, 0x64	; 100
 622:	10 e0       	ldi	r17, 0x00	; 0

	return 1;
}

void processData(void)
{
 624:	c0 e0       	ldi	r28, 0x00	; 0
		uart_sendChar('-');

	for (uint8_t i = 0; i < 6; i++)
	{
		uart_sendChar(48 + decodeDigit(data[2 + i]));
		if ((data[3 + i] & 0x01) & (i < 4))
 626:	d1 e0       	ldi	r29, 0x01	; 1
 628:	f1 2c       	mov	r15, r1
 62a:	1b cf       	rjmp	.-458    	; 0x462 <__LOCK_REGION_LENGTH__+0x62>
 62c:	0b e6       	ldi	r16, 0x6B	; 107
 62e:	10 e0       	ldi	r17, 0x00	; 0

	return 1;
}

void processData(void)
{
 630:	c0 e0       	ldi	r28, 0x00	; 0
		uart_sendChar('-');

	for (uint8_t i = 0; i < 4; i++)
	{
		uart_sendChar(48 + decodeDigit(data[9 + i]));
		if ((data[10 + i] & 0x01) & (i < 3))
 632:	d1 e0       	ldi	r29, 0x01	; 1
 634:	f1 2c       	mov	r15, r1
 636:	98 cf       	rjmp	.-208    	; 0x568 <__LOCK_REGION_LENGTH__+0x168>
	uart_sendChar('\n');

	//detect low battery
	if ((data[8] >> 7) & 0x01)
		uart_sendString_P(PSTR("LOW BAT\n"));
}
 638:	df 91       	pop	r29
 63a:	cf 91       	pop	r28
 63c:	1f 91       	pop	r17
 63e:	0f 91       	pop	r16
 640:	ff 90       	pop	r15
 642:	08 95       	ret

00000644 <main>:
extern volatile uint8_t mode;

int main(void)
{
	//setup IO - output for the IR  & activity LEDs
	DDRB |= (1 << DDB0) | (1 << DDB1);
 644:	87 b3       	in	r24, 0x17	; 23
 646:	83 60       	ori	r24, 0x03	; 3
 648:	87 bb       	out	0x17, r24	; 23

	//input for the phototransistor
	DDRB &=~(1 << DDB2);
 64a:	ba 98       	cbi	0x17, 2	; 23
	#else
		//round up by default
		__ticks_dc = (uint32_t)(ceil(fabs(__tmp)));
	#endif

	__builtin_avr_delay_cycles(__ticks_dc);
 64c:	2f ef       	ldi	r18, 0xFF	; 255
 64e:	84 e3       	ldi	r24, 0x34	; 52
 650:	9c e0       	ldi	r25, 0x0C	; 12
 652:	21 50       	subi	r18, 0x01	; 1
 654:	80 40       	sbci	r24, 0x00	; 0
 656:	90 40       	sbci	r25, 0x00	; 0
 658:	e1 f7       	brne	.-8      	; 0x652 <main+0xe>
 65a:	00 c0       	rjmp	.+0      	; 0x65c <main+0x18>
 65c:	00 00       	nop

	//give the serial terminal a while to react
	_delay_ms(500);		
	
	uart_init();
 65e:	42 d0       	rcall	.+132    	; 0x6e4 <_Z9uart_initv>
	uart_sendString_P(PSTR("Brymen 867/869 interface cable\nfor more info, see embedblog.eu/?p=475\n"));
 660:	89 e2       	ldi	r24, 0x29	; 41
 662:	92 e0       	ldi	r25, 0x02	; 2
 664:	80 d0       	rcall	.+256    	; 0x766 <_Z17uart_sendString_PPKc>
	uart_sendString_P(PSTR("Available commands:\n"));
 666:	84 e1       	ldi	r24, 0x14	; 20
 668:	92 e0       	ldi	r25, 0x02	; 2
 66a:	7d d0       	rcall	.+250    	; 0x766 <_Z17uart_sendString_PPKc>
	uart_sendString_P(PSTR("F - 5 samples per second\n"));
 66c:	8a ef       	ldi	r24, 0xFA	; 250
 66e:	91 e0       	ldi	r25, 0x01	; 1
 670:	7a d0       	rcall	.+244    	; 0x766 <_Z17uart_sendString_PPKc>
	uart_sendString_P(PSTR("O - 1 sample per second\n"));
 672:	81 ee       	ldi	r24, 0xE1	; 225
 674:	91 e0       	ldi	r25, 0x01	; 1
 676:	77 d0       	rcall	.+238    	; 0x766 <_Z17uart_sendString_PPKc>
	uart_sendString_P(PSTR("S - stop autosend\n"));
 678:	8e ec       	ldi	r24, 0xCE	; 206
 67a:	91 e0       	ldi	r25, 0x01	; 1
 67c:	74 d0       	rcall	.+232    	; 0x766 <_Z17uart_sendString_PPKc>
	uart_sendString_P(PSTR("D - send a single reading\n"));
 67e:	83 eb       	ldi	r24, 0xB3	; 179
 680:	91 e0       	ldi	r25, 0x01	; 1
 682:	71 d0       	rcall	.+226    	; 0x766 <_Z17uart_sendString_PPKc>
	uart_sendString_P(PSTR("R - toggle raw data output\n"));
 684:	87 e9       	ldi	r24, 0x97	; 151
 686:	91 e0       	ldi	r25, 0x01	; 1
 688:	6e d0       	rcall	.+220    	; 0x766 <_Z17uart_sendString_PPKc>
			LED_LOW;

			if (mode == MODE_1X_PER_SEC)
				_delay_ms(920);

			if ((mode == MODE_STOP) | (mode == MODE_SEND))
 68a:	c1 e0       	ldi	r28, 0x01	; 1
 68c:	d0 e0       	ldi	r29, 0x00	; 0
			{
				mode = MODE_STOP;
 68e:	12 e0       	ldi	r17, 0x02	; 2
	uart_sendString_P(PSTR("D - send a single reading\n"));
	uart_sendString_P(PSTR("R - toggle raw data output\n"));
	
	while (1) 
    {
		if (getData())
 690:	2e de       	rcall	.-932    	; 0x2ee <_Z7getDatav>
 692:	88 23       	and	r24, r24
 694:	e9 f3       	breq	.-6      	; 0x690 <main+0x4c>
		{
			LED_HIGH;
 696:	c1 9a       	sbi	0x18, 1	; 24
			processData();
 698:	7e de       	rcall	.-772    	; 0x396 <_Z11processDatav>
			LED_LOW;
 69a:	c1 98       	cbi	0x18, 1	; 24

			if (mode == MODE_1X_PER_SEC)
 69c:	80 91 60 00 	lds	r24, 0x0060	; 0x800060 <__data_start>
 6a0:	81 30       	cpi	r24, 0x01	; 1
 6a2:	49 f4       	brne	.+18     	; 0x6b6 <main+0x72>
 6a4:	2f ef       	ldi	r18, 0xFF	; 255
 6a6:	85 e7       	ldi	r24, 0x75	; 117
 6a8:	96 e1       	ldi	r25, 0x16	; 22
 6aa:	21 50       	subi	r18, 0x01	; 1
 6ac:	80 40       	sbci	r24, 0x00	; 0
 6ae:	90 40       	sbci	r25, 0x00	; 0
 6b0:	e1 f7       	brne	.-8      	; 0x6aa <main+0x66>
 6b2:	00 c0       	rjmp	.+0      	; 0x6b4 <main+0x70>
 6b4:	00 00       	nop
				_delay_ms(920);

			if ((mode == MODE_STOP) | (mode == MODE_SEND))
 6b6:	90 91 60 00 	lds	r25, 0x0060	; 0x800060 <__data_start>
 6ba:	20 91 60 00 	lds	r18, 0x0060	; 0x800060 <__data_start>
 6be:	8c 2f       	mov	r24, r28
 6c0:	92 30       	cpi	r25, 0x02	; 2
 6c2:	09 f0       	breq	.+2      	; 0x6c6 <main+0x82>
 6c4:	8d 2f       	mov	r24, r29
 6c6:	81 11       	cpse	r24, r1
 6c8:	06 c0       	rjmp	.+12     	; 0x6d6 <main+0x92>
 6ca:	8c 2f       	mov	r24, r28
 6cc:	23 30       	cpi	r18, 0x03	; 3
 6ce:	09 f0       	breq	.+2      	; 0x6d2 <main+0x8e>
 6d0:	8d 2f       	mov	r24, r29
 6d2:	88 23       	and	r24, r24
 6d4:	e9 f2       	breq	.-70     	; 0x690 <main+0x4c>
			{
				mode = MODE_STOP;
 6d6:	10 93 60 00 	sts	0x0060, r17	; 0x800060 <__data_start>
				while (mode == MODE_STOP);
 6da:	80 91 60 00 	lds	r24, 0x0060	; 0x800060 <__data_start>
 6de:	82 30       	cpi	r24, 0x02	; 2
 6e0:	e1 f3       	breq	.-8      	; 0x6da <main+0x96>
 6e2:	d6 cf       	rjmp	.-84     	; 0x690 <main+0x4c>

000006e4 <_Z9uart_initv>:
volatile bool rawData = false;

void uart_init()
{
	//setup TX pin
	DDRB |= (1 << DDB4);
 6e4:	bc 9a       	sbi	0x17, 4	; 23
	TX_HIGH;
 6e6:	c4 9a       	sbi	0x18, 4	; 24

	//setup RX pin
	DDRB &=~(1 << DDB3);
 6e8:	bb 98       	cbi	0x17, 3	; 23
	PCMSK |= (1 << PCINT3);
 6ea:	ab 9a       	sbi	0x15, 3	; 21
	GIMSK |= (1 << PCIE);
 6ec:	8b b7       	in	r24, 0x3b	; 59
 6ee:	80 62       	ori	r24, 0x20	; 32
 6f0:	8b bf       	out	0x3b, r24	; 59
	sei();
 6f2:	78 94       	sei
 6f4:	08 95       	ret

000006f6 <_Z13uart_sendCharh>:
}

void uart_sendChar(uint8_t ch)
{
	TX_LOW;
 6f6:	c4 98       	cbi	0x18, 4	; 24
	#else
		//round up by default
		__ticks_dc = (uint32_t)(ceil(fabs(__tmp)));
	#endif

	__builtin_avr_delay_cycles(__ticks_dc);
 6f8:	ef ec       	ldi	r30, 0xCF	; 207
 6fa:	f0 e0       	ldi	r31, 0x00	; 0
 6fc:	31 97       	sbiw	r30, 0x01	; 1
 6fe:	f1 f7       	brne	.-4      	; 0x6fc <_Z13uart_sendCharh+0x6>
 700:	00 c0       	rjmp	.+0      	; 0x702 <_Z13uart_sendCharh+0xc>
 702:	00 00       	nop
	_delay_us(UART_DELAY);
	TX_HIGH;
 704:	c4 9a       	sbi	0x18, 4	; 24
 706:	20 e0       	ldi	r18, 0x00	; 0
 708:	30 e0       	ldi	r19, 0x00	; 0

	for (uint8_t i = 0; i < 8; i++)
	{
		if ((ch >> i) & 0x01)
 70a:	90 e0       	ldi	r25, 0x00	; 0
 70c:	ac 01       	movw	r20, r24
 70e:	02 2e       	mov	r0, r18
 710:	02 c0       	rjmp	.+4      	; 0x716 <_Z13uart_sendCharh+0x20>
 712:	55 95       	asr	r21
 714:	47 95       	ror	r20
 716:	0a 94       	dec	r0
 718:	e2 f7       	brpl	.-8      	; 0x712 <_Z13uart_sendCharh+0x1c>
 71a:	40 ff       	sbrs	r20, 0
 71c:	02 c0       	rjmp	.+4      	; 0x722 <_Z13uart_sendCharh+0x2c>
		TX_HIGH;
 71e:	c4 9a       	sbi	0x18, 4	; 24
 720:	01 c0       	rjmp	.+2      	; 0x724 <_Z13uart_sendCharh+0x2e>
		else
		TX_LOW;
 722:	c4 98       	cbi	0x18, 4	; 24
 724:	ef ec       	ldi	r30, 0xCF	; 207
 726:	f0 e0       	ldi	r31, 0x00	; 0
 728:	31 97       	sbiw	r30, 0x01	; 1
 72a:	f1 f7       	brne	.-4      	; 0x728 <_Z13uart_sendCharh+0x32>
 72c:	00 c0       	rjmp	.+0      	; 0x72e <_Z13uart_sendCharh+0x38>
 72e:	00 00       	nop
 730:	2f 5f       	subi	r18, 0xFF	; 255
 732:	3f 4f       	sbci	r19, 0xFF	; 255
{
	TX_LOW;
	_delay_us(UART_DELAY);
	TX_HIGH;

	for (uint8_t i = 0; i < 8; i++)
 734:	28 30       	cpi	r18, 0x08	; 8
 736:	31 05       	cpc	r19, r1
 738:	49 f7       	brne	.-46     	; 0x70c <_Z13uart_sendCharh+0x16>
		else
		TX_LOW;
		_delay_us(UART_DELAY);
	}

	TX_HIGH;
 73a:	c4 9a       	sbi	0x18, 4	; 24
 73c:	8f ec       	ldi	r24, 0xCF	; 207
 73e:	90 e0       	ldi	r25, 0x00	; 0
 740:	01 97       	sbiw	r24, 0x01	; 1
 742:	f1 f7       	brne	.-4      	; 0x740 <_Z13uart_sendCharh+0x4a>
 744:	00 c0       	rjmp	.+0      	; 0x746 <_Z13uart_sendCharh+0x50>
 746:	00 00       	nop
 748:	08 95       	ret

0000074a <_Z15uart_sendStringPc>:
	_delay_us(UART_DELAY);
}

void uart_sendString(char* s)
{
 74a:	cf 93       	push	r28
 74c:	df 93       	push	r29
 74e:	ec 01       	movw	r28, r24
	while(*s)  uart_sendChar(*s++);
 750:	88 81       	ld	r24, Y
 752:	88 23       	and	r24, r24
 754:	29 f0       	breq	.+10     	; 0x760 <_Z15uart_sendStringPc+0x16>
 756:	21 96       	adiw	r28, 0x01	; 1
 758:	ce df       	rcall	.-100    	; 0x6f6 <_Z13uart_sendCharh>
 75a:	89 91       	ld	r24, Y+
 75c:	81 11       	cpse	r24, r1
 75e:	fc cf       	rjmp	.-8      	; 0x758 <_Z15uart_sendStringPc+0xe>
}
 760:	df 91       	pop	r29
 762:	cf 91       	pop	r28
 764:	08 95       	ret

00000766 <_Z17uart_sendString_PPKc>:

void uart_sendString_P(const char* s)
{
 766:	cf 93       	push	r28
 768:	df 93       	push	r29
 76a:	ec 01       	movw	r28, r24
	while (pgm_read_byte(s)) uart_sendChar(pgm_read_byte(s++));
 76c:	fc 01       	movw	r30, r24
 76e:	84 91       	lpm	r24, Z
 770:	88 23       	and	r24, r24
 772:	41 f0       	breq	.+16     	; 0x784 <_Z17uart_sendString_PPKc+0x1e>
 774:	fe 01       	movw	r30, r28
 776:	21 96       	adiw	r28, 0x01	; 1
 778:	84 91       	lpm	r24, Z
 77a:	bd df       	rcall	.-134    	; 0x6f6 <_Z13uart_sendCharh>
 77c:	fe 01       	movw	r30, r28
 77e:	84 91       	lpm	r24, Z
 780:	81 11       	cpse	r24, r1
 782:	f8 cf       	rjmp	.-16     	; 0x774 <_Z17uart_sendString_PPKc+0xe>
}
 784:	df 91       	pop	r29
 786:	cf 91       	pop	r28
 788:	08 95       	ret

0000078a <_Z15uart_sendNumberjh>:

void uart_sendNumber(uint16_t num, uint8_t base)
{
 78a:	cf 93       	push	r28
 78c:	df 93       	push	r29
 78e:	00 d0       	rcall	.+0      	; 0x790 <_Z15uart_sendNumberjh+0x6>
 790:	00 d0       	rcall	.+0      	; 0x792 <_Z15uart_sendNumberjh+0x8>
 792:	00 d0       	rcall	.+0      	; 0x794 <_Z15uart_sendNumberjh+0xa>
 794:	cd b7       	in	r28, 0x3d	; 61
 796:	de b7       	in	r29, 0x3e	; 62
extern __inline__ __ATTR_GNU_INLINE__
char *itoa (int __val, char *__s, int __radix)
{
    if (!__builtin_constant_p (__radix)) {
	extern char *__itoa (int, char *, int);
	return __itoa (__val, __s, __radix);
 798:	46 2f       	mov	r20, r22
 79a:	50 e0       	ldi	r21, 0x00	; 0
 79c:	be 01       	movw	r22, r28
 79e:	6f 5f       	subi	r22, 0xFF	; 255
 7a0:	7f 4f       	sbci	r23, 0xFF	; 255
 7a2:	6e d0       	rcall	.+220    	; 0x880 <itoa>
	char buf[6];
	itoa(num, buf, base);
	uart_sendString(buf);
 7a4:	ce 01       	movw	r24, r28
 7a6:	01 96       	adiw	r24, 0x01	; 1
 7a8:	d0 df       	rcall	.-96     	; 0x74a <_Z15uart_sendStringPc>
}
 7aa:	26 96       	adiw	r28, 0x06	; 6
 7ac:	0f b6       	in	r0, 0x3f	; 63
 7ae:	f8 94       	cli
 7b0:	de bf       	out	0x3e, r29	; 62
 7b2:	0f be       	out	0x3f, r0	; 63
 7b4:	cd bf       	out	0x3d, r28	; 61
 7b6:	df 91       	pop	r29
 7b8:	cf 91       	pop	r28
 7ba:	08 95       	ret

000007bc <__vector_2>:

//note: putting delays in interrupts is far from ideal, but since this is the only interrupt vector enabled...
ISR(PCINT0_vect)
{
 7bc:	1f 92       	push	r1
 7be:	0f 92       	push	r0
 7c0:	0f b6       	in	r0, 0x3f	; 63
 7c2:	0f 92       	push	r0
 7c4:	11 24       	eor	r1, r1
 7c6:	2f 93       	push	r18
 7c8:	4f 93       	push	r20
 7ca:	5f 93       	push	r21
 7cc:	6f 93       	push	r22
 7ce:	7f 93       	push	r23
 7d0:	8f 93       	push	r24
 7d2:	9f 93       	push	r25
 7d4:	ef 93       	push	r30
 7d6:	ff 93       	push	r31
	if (!RX_LOW)	return;
 7d8:	b3 99       	sbic	0x16, 3	; 22
 7da:	44 c0       	rjmp	.+136    	; 0x864 <__vector_2+0xa8>
 7dc:	87 e3       	ldi	r24, 0x37	; 55
 7de:	91 e0       	ldi	r25, 0x01	; 1
 7e0:	01 97       	sbiw	r24, 0x01	; 1
 7e2:	f1 f7       	brne	.-4      	; 0x7e0 <__vector_2+0x24>
 7e4:	00 c0       	rjmp	.+0      	; 0x7e6 <__vector_2+0x2a>
 7e6:	00 00       	nop
 7e8:	80 e0       	ldi	r24, 0x00	; 0
 7ea:	90 e0       	ldi	r25, 0x00	; 0
	
	uint8_t data = 0x0;
 7ec:	20 e0       	ldi	r18, 0x00	; 0
	_delay_us(UART_DELAY + (UART_DELAY / 2));

	for (uint8_t i = 0; i < 8; i ++)
	{
		if (!RX_LOW)
		data |= (1 << i);
 7ee:	61 e0       	ldi	r22, 0x01	; 1
 7f0:	70 e0       	ldi	r23, 0x00	; 0
	
	_delay_us(UART_DELAY + (UART_DELAY / 2));

	for (uint8_t i = 0; i < 8; i ++)
	{
		if (!RX_LOW)
 7f2:	b3 9b       	sbis	0x16, 3	; 22
 7f4:	08 c0       	rjmp	.+16     	; 0x806 <__vector_2+0x4a>
		data |= (1 << i);
 7f6:	ab 01       	movw	r20, r22
 7f8:	08 2e       	mov	r0, r24
 7fa:	02 c0       	rjmp	.+4      	; 0x800 <__vector_2+0x44>
 7fc:	44 0f       	add	r20, r20
 7fe:	55 1f       	adc	r21, r21
 800:	0a 94       	dec	r0
 802:	e2 f7       	brpl	.-8      	; 0x7fc <__vector_2+0x40>
 804:	24 2b       	or	r18, r20
 806:	ef ec       	ldi	r30, 0xCF	; 207
 808:	f0 e0       	ldi	r31, 0x00	; 0
 80a:	31 97       	sbiw	r30, 0x01	; 1
 80c:	f1 f7       	brne	.-4      	; 0x80a <__vector_2+0x4e>
 80e:	00 c0       	rjmp	.+0      	; 0x810 <__vector_2+0x54>
 810:	00 00       	nop
 812:	01 96       	adiw	r24, 0x01	; 1
	
	uint8_t data = 0x0;
	
	_delay_us(UART_DELAY + (UART_DELAY / 2));

	for (uint8_t i = 0; i < 8; i ++)
 814:	88 30       	cpi	r24, 0x08	; 8
 816:	91 05       	cpc	r25, r1
 818:	61 f7       	brne	.-40     	; 0x7f2 <__vector_2+0x36>
		if (!RX_LOW)
		data |= (1 << i);
		_delay_us(UART_DELAY);
	}

	switch (data)
 81a:	2f 34       	cpi	r18, 0x4F	; 79
 81c:	a9 f0       	breq	.+42     	; 0x848 <__vector_2+0x8c>
 81e:	28 f4       	brcc	.+10     	; 0x82a <__vector_2+0x6e>
 820:	24 34       	cpi	r18, 0x44	; 68
 822:	d1 f0       	breq	.+52     	; 0x858 <__vector_2+0x9c>
 824:	26 34       	cpi	r18, 0x46	; 70
 826:	69 f0       	breq	.+26     	; 0x842 <__vector_2+0x86>
 828:	1a c0       	rjmp	.+52     	; 0x85e <__vector_2+0xa2>
 82a:	22 35       	cpi	r18, 0x52	; 82
 82c:	19 f0       	breq	.+6      	; 0x834 <__vector_2+0x78>
 82e:	23 35       	cpi	r18, 0x53	; 83
 830:	79 f0       	breq	.+30     	; 0x850 <__vector_2+0x94>
 832:	15 c0       	rjmp	.+42     	; 0x85e <__vector_2+0xa2>
	{
		case 'R': rawData = !rawData; break;
 834:	90 91 76 00 	lds	r25, 0x0076	; 0x800076 <rawData>
 838:	81 e0       	ldi	r24, 0x01	; 1
 83a:	89 27       	eor	r24, r25
 83c:	80 93 76 00 	sts	0x0076, r24	; 0x800076 <rawData>
 840:	0e c0       	rjmp	.+28     	; 0x85e <__vector_2+0xa2>
		case 'F': mode = MODE_5X_PER_SEC; break;
 842:	10 92 60 00 	sts	0x0060, r1	; 0x800060 <__data_start>
 846:	0b c0       	rjmp	.+22     	; 0x85e <__vector_2+0xa2>
		case 'O': mode = MODE_1X_PER_SEC; break;
 848:	81 e0       	ldi	r24, 0x01	; 1
 84a:	80 93 60 00 	sts	0x0060, r24	; 0x800060 <__data_start>
 84e:	07 c0       	rjmp	.+14     	; 0x85e <__vector_2+0xa2>
		case 'S': mode = MODE_STOP; break;
 850:	82 e0       	ldi	r24, 0x02	; 2
 852:	80 93 60 00 	sts	0x0060, r24	; 0x800060 <__data_start>
 856:	03 c0       	rjmp	.+6      	; 0x85e <__vector_2+0xa2>
		case 'D': mode = MODE_SEND; break;
 858:	83 e0       	ldi	r24, 0x03	; 3
 85a:	80 93 60 00 	sts	0x0060, r24	; 0x800060 <__data_start>
		default: break;
	}

	//clear interrupt flag
	GIFR |= (1 << INTF0);
 85e:	8a b7       	in	r24, 0x3a	; 58
 860:	80 64       	ori	r24, 0x40	; 64
 862:	8a bf       	out	0x3a, r24	; 58
}
 864:	ff 91       	pop	r31
 866:	ef 91       	pop	r30
 868:	9f 91       	pop	r25
 86a:	8f 91       	pop	r24
 86c:	7f 91       	pop	r23
 86e:	6f 91       	pop	r22
 870:	5f 91       	pop	r21
 872:	4f 91       	pop	r20
 874:	2f 91       	pop	r18
 876:	0f 90       	pop	r0
 878:	0f be       	out	0x3f, r0	; 63
 87a:	0f 90       	pop	r0
 87c:	1f 90       	pop	r1
 87e:	18 95       	reti

00000880 <itoa>:
 880:	45 32       	cpi	r20, 0x25	; 37
 882:	51 05       	cpc	r21, r1
 884:	18 f4       	brcc	.+6      	; 0x88c <itoa+0xc>
 886:	42 30       	cpi	r20, 0x02	; 2
 888:	08 f0       	brcs	.+2      	; 0x88c <itoa+0xc>
 88a:	04 c0       	rjmp	.+8      	; 0x894 <__itoa_ncheck>
 88c:	fb 01       	movw	r30, r22
 88e:	10 82       	st	Z, r1
 890:	cb 01       	movw	r24, r22
 892:	08 95       	ret

00000894 <__itoa_ncheck>:
 894:	bb 27       	eor	r27, r27
 896:	4a 30       	cpi	r20, 0x0A	; 10
 898:	31 f4       	brne	.+12     	; 0x8a6 <__itoa_ncheck+0x12>
 89a:	99 23       	and	r25, r25
 89c:	22 f4       	brpl	.+8      	; 0x8a6 <__itoa_ncheck+0x12>
 89e:	bd e2       	ldi	r27, 0x2D	; 45
 8a0:	90 95       	com	r25
 8a2:	81 95       	neg	r24
 8a4:	9f 4f       	sbci	r25, 0xFF	; 255
 8a6:	01 c0       	rjmp	.+2      	; 0x8aa <__utoa_common>

000008a8 <__utoa_ncheck>:
 8a8:	bb 27       	eor	r27, r27

000008aa <__utoa_common>:
 8aa:	fb 01       	movw	r30, r22
 8ac:	55 27       	eor	r21, r21
 8ae:	aa 27       	eor	r26, r26
 8b0:	88 0f       	add	r24, r24
 8b2:	99 1f       	adc	r25, r25
 8b4:	aa 1f       	adc	r26, r26
 8b6:	a4 17       	cp	r26, r20
 8b8:	10 f0       	brcs	.+4      	; 0x8be <__utoa_common+0x14>
 8ba:	a4 1b       	sub	r26, r20
 8bc:	83 95       	inc	r24
 8be:	50 51       	subi	r21, 0x10	; 16
 8c0:	b9 f7       	brne	.-18     	; 0x8b0 <__utoa_common+0x6>
 8c2:	a0 5d       	subi	r26, 0xD0	; 208
 8c4:	aa 33       	cpi	r26, 0x3A	; 58
 8c6:	08 f0       	brcs	.+2      	; 0x8ca <__utoa_common+0x20>
 8c8:	a9 5d       	subi	r26, 0xD9	; 217
 8ca:	a1 93       	st	Z+, r26
 8cc:	00 97       	sbiw	r24, 0x00	; 0
 8ce:	79 f7       	brne	.-34     	; 0x8ae <__utoa_common+0x4>
 8d0:	b1 11       	cpse	r27, r1
 8d2:	b1 93       	st	Z+, r27
 8d4:	11 92       	st	Z+, r1
 8d6:	cb 01       	movw	r24, r22
 8d8:	00 c0       	rjmp	.+0      	; 0x8da <strrev>

000008da <strrev>:
 8da:	dc 01       	movw	r26, r24
 8dc:	fc 01       	movw	r30, r24
 8de:	67 2f       	mov	r22, r23
 8e0:	71 91       	ld	r23, Z+
 8e2:	77 23       	and	r23, r23
 8e4:	e1 f7       	brne	.-8      	; 0x8de <strrev+0x4>
 8e6:	32 97       	sbiw	r30, 0x02	; 2
 8e8:	04 c0       	rjmp	.+8      	; 0x8f2 <strrev+0x18>
 8ea:	7c 91       	ld	r23, X
 8ec:	6d 93       	st	X+, r22
 8ee:	70 83       	st	Z, r23
 8f0:	62 91       	ld	r22, -Z
 8f2:	ae 17       	cp	r26, r30
 8f4:	bf 07       	cpc	r27, r31
 8f6:	c8 f3       	brcs	.-14     	; 0x8ea <strrev+0x10>
 8f8:	08 95       	ret

000008fa <_exit>:
 8fa:	f8 94       	cli

000008fc <__stop_program>:
 8fc:	ff cf       	rjmp	.-2      	; 0x8fc <__stop_program>
